; Function Attrs: mustprogress uwtable
define noundef zeroext i1 @_ZN8nanobind6detail10issubclassEP7_objectS2_(ptr noundef %0, ptr noundef %1) local_unnamed_addr #15 {
  %3 = tail call i32 @PyObject_IsSubclass(ptr noundef %0, ptr noundef %1)
  %4 = icmp eq i32 %3, -1
  br i1 %4, label %5, label %6

5:                                                ; preds = %2
  tail call void @_ZN8nanobind6detail18raise_python_errorEv() #28
  unreachable

6:                                                ; preds = %2
  %7 = icmp ne i32 %3, 0
  ret i1 %7
}